target datalayout = "e-m:e-p270:32:32-p271:32:32-p272:64:64-i64:64-i128:128-f80:128-n8:16:32:64-S128"
target triple = "x86_64-pc-linux-gnu"

%struct.UConverter = type { ptr, ptr, ptr, ptr, ptr, ptr, ptr, i32, i8, i8, i8, i8, i8, [7 x i8], i32, i32, i32, i32, i8, i8, i8, i8, i8, i8, i8, i8, [8 x i8], [32 x i8], [2 x i16], [2 x i16], [32 x i16], i32, [19 x i16], [31 x i8], i8, i8, i8, i32 }
%struct.UConverterSharedData = type { i32, i32, ptr, ptr, i8, i8, ptr, i32, %struct.UConverterMBCSTable }
%struct.UConverterMBCSTable = type { i8, i8, i8, i32, ptr, ptr, ptr, ptr, ptr, ptr, [64 x i16], ptr, ptr, i32, i8, i8, i8, i16, i32, ptr, ptr, ptr, ptr }
%struct.UConverterStaticData = type { i32, [60 x i8], i32, i8, i8, i8, i8, [4 x i8], i8, i8, i8, i8, i8, [19 x i8] }

; Function Attrs: inlinehint mustprogress nounwind uwtable
define internal noundef signext i8 @_ZL9U_FAILURE10UErrorCode(i32 noundef %0) #2 {
  %2 = alloca i32, align 4
  store i32 %0, ptr %2, align 4, !tbaa !9
  %3 = load i32, ptr %2, align 4, !tbaa !9
  %4 = icmp sgt i32 %3, 0
  %5 = zext i1 %4 to i8
  ret i8 %5
}

; Function Attrs: mustprogress uwtable
define void @ucnv_setSubstChars_77(ptr noundef %0, ptr noundef %1, i8 noundef signext %2, ptr noundef %3) #0 {
  %5 = alloca ptr, align 8
  %6 = alloca ptr, align 8
  %7 = alloca i8, align 1
  %8 = alloca ptr, align 8
  store ptr %0, ptr %5, align 8, !tbaa !11
  store ptr %1, ptr %6, align 8, !tbaa !3
  store i8 %2, ptr %7, align 1, !tbaa !19
  store ptr %3, ptr %8, align 8, !tbaa !8
  %9 = load ptr, ptr %8, align 8, !tbaa !8
  %10 = load i32, ptr %9, align 4, !tbaa !9
  %11 = call noundef signext i8 @_ZL9U_FAILURE10UErrorCode(i32 noundef %10)
  %12 = icmp ne i8 %11, 0
  br i1 %12, label %13, label %14

13:                                               ; preds = %4
  br label %54

14:                                               ; preds = %4
  %15 = load i8, ptr %7, align 1, !tbaa !19
  %16 = sext i8 %15 to i32
  %17 = load ptr, ptr %5, align 8, !tbaa !11
  %18 = getelementptr inbounds nuw %struct.UConverter, ptr %17, i32 0, i32 6
  %19 = load ptr, ptr %18, align 8, !tbaa !22
  %20 = getelementptr inbounds nuw %struct.UConverterSharedData, ptr %19, i32 0, i32 3
  %21 = load ptr, ptr %20, align 8, !tbaa !53
  %22 = getelementptr inbounds nuw %struct.UConverterStaticData, ptr %21, i32 0, i32 6
  %23 = load i8, ptr %22, align 1, !tbaa !54
  %24 = sext i8 %23 to i32
  %25 = icmp sgt i32 %16, %24
  br i1 %25, label %38, label %26

26:                                               ; preds = %14
  %27 = load i8, ptr %7, align 1, !tbaa !19
  %28 = sext i8 %27 to i32
  %29 = load ptr, ptr %5, align 8, !tbaa !11
  %30 = getelementptr inbounds nuw %struct.UConverter, ptr %29, i32 0, i32 6
  %31 = load ptr, ptr %30, align 8, !tbaa !22
  %32 = getelementptr inbounds nuw %struct.UConverterSharedData, ptr %31, i32 0, i32 3
  %33 = load ptr, ptr %32, align 8, !tbaa !53
  %34 = getelementptr inbounds nuw %struct.UConverterStaticData, ptr %33, i32 0, i32 5
  %35 = load i8, ptr %34, align 2, !tbaa !56
  %36 = sext i8 %35 to i32
  %37 = icmp slt i32 %28, %36
  br i1 %37, label %38, label %40

38:                                               ; preds = %26, %14
  %39 = load ptr, ptr %8, align 8, !tbaa !8
  store i32 1, ptr %39, align 4, !tbaa !9
  br label %54

40:                                               ; preds = %26
  br label %41

41:                                               ; preds = %40
  %42 = load ptr, ptr %5, align 8, !tbaa !11
  %43 = getelementptr inbounds nuw %struct.UConverter, ptr %42, i32 0, i32 5
  %44 = load ptr, ptr %43, align 8, !tbaa !40
  %45 = load ptr, ptr %6, align 8, !tbaa !3
  %46 = load i8, ptr %7, align 1, !tbaa !19
  %47 = sext i8 %46 to i64
  call void @llvm.memcpy.p0.p0.i64(ptr align 1 %44, ptr align 1 %45, i64 %47, i1 false)
  br label %48

48:                                               ; preds = %41
  %49 = load i8, ptr %7, align 1, !tbaa !19
  %50 = load ptr, ptr %5, align 8, !tbaa !11
  %51 = getelementptr inbounds nuw %struct.UConverter, ptr %50, i32 0, i32 19
  store i8 %49, ptr %51, align 1, !tbaa !52
  %52 = load ptr, ptr %5, align 8, !tbaa !11
  %53 = getelementptr inbounds nuw %struct.UConverter, ptr %52, i32 0, i32 24
  store i8 0, ptr %53, align 2, !tbaa !57
  br label %54

54:                                               ; preds = %48, %38, %13
  ret void
}