; Function Attrs: mustprogress nofree norecurse nosync nounwind willreturn memory(readwrite, inaccessiblemem: none) uwtable
define void @ucnv_setSubstChars_77(ptr noundef captures(none) %0, ptr noundef readonly captures(none) %1, i8 noundef signext %2, ptr noundef captures(none) %3) local_unnamed_addr #6 {
  %5 = load i32, ptr %3, align 4, !tbaa !3
  %6 = icmp slt i32 %5, 1
  br i1 %6, label %7, label %26

7:                                                ; preds = %4
  %8 = getelementptr inbounds nuw i8, ptr %0, i64 48
  %9 = load ptr, ptr %8, align 8, !tbaa !8
  %10 = getelementptr inbounds nuw i8, ptr %9, i64 16
  %11 = load ptr, ptr %10, align 8, !tbaa !44
  %12 = getelementptr inbounds nuw i8, ptr %11, i64 71
  %13 = load i8, ptr %12, align 1, !tbaa !45
  %14 = icmp sgt i8 %2, %13
  br i1 %14, label %19, label %15

15:                                               ; preds = %7
  %16 = getelementptr inbounds nuw i8, ptr %11, i64 70
  %17 = load i8, ptr %16, align 2, !tbaa !47
  %18 = icmp slt i8 %2, %17
  br i1 %18, label %19, label %20

19:                                               ; preds = %15, %7
  store i32 1, ptr %3, align 4, !tbaa !3
  br label %26

20:                                               ; preds = %15
  %21 = getelementptr inbounds nuw i8, ptr %0, i64 40
  %22 = load ptr, ptr %21, align 8, !tbaa !29
  %23 = sext i8 %2 to i64
  tail call void @llvm.memcpy.p0.p0.i64(ptr align 1 %22, ptr align 1 %1, i64 %23, i1 false)
  %24 = getelementptr inbounds nuw i8, ptr %0, i64 89
  store i8 %2, ptr %24, align 1, !tbaa !43
  %25 = getelementptr inbounds nuw i8, ptr %0, i64 94
  store i8 0, ptr %25, align 2, !tbaa !48
  br label %26

26:                                               ; preds = %4, %20, %19
  ret void
}